; Function Attrs: mustprogress uwtable
define hidden void @_Z13color_mappingi(ptr dead_on_unwind noalias nocapture writable writeonly sret(%"class.cv::Scalar_") align 8 %0, i32 noundef %1) local_unnamed_addr #3 {
  %3 = alloca %"class.cv::Scalar_", align 8
  %4 = sitofp i32 %1 to double
  %5 = tail call double @llvm.fmuladd.f64(double %4, double 0x3FE3C6EF372FE951, double 0x3FCF499FDC28E049)
  %6 = tail call double @fmod(double noundef %5, double noundef 1.200000e+00) #13
  store double %6, ptr %3, align 8
  %7 = getelementptr inbounds i8, ptr %3, i64 8
  store <2 x double> <double 0x3FEE666666666666, double 8.000000e-01>, ptr %7, align 8
  %8 = getelementptr inbounds i8, ptr %3, i64 24
  store double 0.000000e+00, ptr %8, align 8
  call void @_Z10hsv_to_rgbN2cv7Scalar_IdEE(ptr dead_on_unwind writable sret(%"class.cv::Scalar_") align 8 %0, ptr noundef nonnull %3)
  ret void
}